; Function Attrs: mustprogress nounwind uwtable
define dso_local void @_ZN5clang9ParentMapC2EPNS_4StmtE(ptr noundef nonnull writeonly align 8 captures(none) dereferenceable(8) initializes((0, 8)) %0, ptr noundef %1) unnamed_addr #0 align 2 {
  store ptr null, ptr %0, align 8
  %.not = icmp eq ptr %1, null
  br i1 %.not, label %5, label %3

3:                                                ; preds = %2
  %4 = tail call noalias noundef nonnull dereferenceable(24) ptr @_Znwm(i64 noundef 24) #12
  tail call void @llvm.memset.p0.i64(ptr noundef nonnull align 8 dereferenceable(20) %4, i8 0, i64 20, i1 false)
  tail call fastcc void @_ZL14BuildParentMapRN4llvm8DenseMapIPN5clang4StmtES3_NS_12DenseMapInfoIS3_vEENS_6detail12DenseMapPairIS3_S3_EEEES3_15OpaqueValueMode(ptr noundef nonnull align 8 dereferenceable(20) %4, ptr noundef nonnull %1, i32 noundef 0)
  store ptr %4, ptr %0, align 8
  br label %5

5:                                                ; preds = %3, %2
  ret void
}